; Function Attrs: mustprogress nofree norecurse nosync nounwind willreturn memory(read, inaccessiblemem: none) uwtable
define dso_local noundef zeroext i1 @_ZNK10btSoftBody9checkLinkEii(ptr nocapture noundef nonnull readonly align 8 dereferenceable(2064) %this, i32 noundef %node0, i32 noundef %node1) local_unnamed_addr #10 align 2 {
entry:
  %m_data.i = getelementptr inbounds i8, ptr %this, i64 944
  %0 = load ptr, ptr %m_data.i, align 8
  %idxprom.i = sext i32 %node0 to i64
  %arrayidx.i = getelementptr inbounds %"struct.btSoftBody::Node", ptr %0, i64 %idxprom.i
  %idxprom.i2 = sext i32 %node1 to i64
  %arrayidx.i3 = getelementptr inbounds %"struct.btSoftBody::Node", ptr %0, i64 %idxprom.i2
  %m_size.i.i = getelementptr inbounds i8, ptr %this, i64 996
  %1 = load i32, ptr %m_size.i.i, align 4
  %cmp10.i = icmp sgt i32 %1, 0
  br i1 %cmp10.i, label %for.body.lr.ph.i, label %_ZNK10btSoftBody9checkLinkEPKNS_4NodeES2_.exit

for.body.lr.ph.i:                                 ; preds = %entry
  %m_data.i.i = getelementptr inbounds i8, ptr %this, i64 1008
  %2 = load ptr, ptr %m_data.i.i, align 8
  %3 = zext nneg i32 %1 to i64
  %m_n.i4 = getelementptr inbounds i8, ptr %2, i64 32
  %4 = load ptr, ptr %m_n.i4, align 8
  %cmp5.i5 = icmp eq ptr %4, %arrayidx.i
  %arrayidx7.i6 = getelementptr inbounds i8, ptr %2, i64 40
  %5 = load ptr, ptr %arrayidx7.i6, align 8
  %cmp9.i7 = icmp eq ptr %5, %arrayidx.i3
  %or.cond.i8 = select i1 %cmp5.i5, i1 %cmp9.i7, i1 false
  br i1 %or.cond.i8, label %_ZNK10btSoftBody9checkLinkEPKNS_4NodeES2_.exit, label %lor.lhs.false.i.preheader

lor.lhs.false.i.preheader:                        ; preds = %for.body.lr.ph.i
  %cmp13.i13 = icmp eq ptr %4, %arrayidx.i3
  %cmp18.i14 = icmp eq ptr %5, %arrayidx.i
  %or.cond8.i15 = select i1 %cmp13.i13, i1 %cmp18.i14, i1 false
  br i1 %or.cond8.i15, label %_ZNK10btSoftBody9checkLinkEPKNS_4NodeES2_.exit, label %for.cond.i

for.cond.i:                                       ; preds = %lor.lhs.false.i.preheader, %lor.lhs.false.i
  %indvars.iv.i916 = phi i64 [ %indvars.iv.next.i, %lor.lhs.false.i ], [ 0, %lor.lhs.false.i.preheader ]
  %indvars.iv.next.i = add nuw nsw i64 %indvars.iv.i916, 1
  %exitcond.not.i = icmp eq i64 %indvars.iv.next.i, %3
  br i1 %exitcond.not.i, label %_ZNK10btSoftBody9checkLinkEPKNS_4NodeES2_.exit.loopexit, label %for.body.i, !llvm.loop !31

for.body.i:                                       ; preds = %for.cond.i
  %arrayidx.i.i = getelementptr inbounds %"struct.btSoftBody::Link", ptr %2, i64 %indvars.iv.next.i
  %m_n.i = getelementptr inbounds i8, ptr %arrayidx.i.i, i64 32
  %6 = load ptr, ptr %m_n.i, align 8
  %cmp5.i = icmp eq ptr %6, %arrayidx.i
  %arrayidx7.i = getelementptr inbounds i8, ptr %arrayidx.i.i, i64 40
  %7 = load ptr, ptr %arrayidx7.i, align 8
  %cmp9.i = icmp eq ptr %7, %arrayidx.i3
  %or.cond.i = select i1 %cmp5.i, i1 %cmp9.i, i1 false
  br i1 %or.cond.i, label %_ZNK10btSoftBody9checkLinkEPKNS_4NodeES2_.exit.loopexit, label %lor.lhs.false.i, !llvm.loop !31

lor.lhs.false.i:                                  ; preds = %for.body.i
  %cmp13.i = icmp eq ptr %6, %arrayidx.i3
  %cmp18.i = icmp eq ptr %7, %arrayidx.i
  %or.cond8.i = select i1 %cmp13.i, i1 %cmp18.i, i1 false
  br i1 %or.cond8.i, label %_ZNK10btSoftBody9checkLinkEPKNS_4NodeES2_.exit.loopexit, label %for.cond.i, !llvm.loop !31

_ZNK10btSoftBody9checkLinkEPKNS_4NodeES2_.exit.loopexit: ; preds = %lor.lhs.false.i, %for.body.i, %for.cond.i
  %cmp.i.le = icmp ult i64 %indvars.iv.next.i, %3
  br label %_ZNK10btSoftBody9checkLinkEPKNS_4NodeES2_.exit

_ZNK10btSoftBody9checkLinkEPKNS_4NodeES2_.exit:   ; preds = %_ZNK10btSoftBody9checkLinkEPKNS_4NodeES2_.exit.loopexit, %lor.lhs.false.i.preheader, %for.body.lr.ph.i, %entry
  %cmp.lcssa.i = phi i1 [ false, %entry ], [ true, %for.body.lr.ph.i ], [ true, %lor.lhs.false.i.preheader ], [ %cmp.i.le, %_ZNK10btSoftBody9checkLinkEPKNS_4NodeES2_.exit.loopexit ]
  ret i1 %cmp.lcssa.i
}